target datalayout = "e-m:e-p270:32:32-p271:32:32-p272:64:64-i64:64-i128:128-f80:128-n8:16:32:64-S128"
target triple = "x86_64-pc-linux-gnu"

; Function Attrs: inlinehint mustprogress nounwind uwtable
define internal noundef signext i8 @_ZL9U_FAILURE10UErrorCode(i32 noundef %0) #2 {
  %2 = alloca i32, align 4
  store i32 %0, ptr %2, align 4, !tbaa !40
  %3 = load i32, ptr %2, align 4, !tbaa !40
  %4 = icmp sgt i32 %3, 0
  %5 = zext i1 %4 to i8
  ret i8 %5
}

; Function Attrs: mustprogress uwtable
define ptr @utrans_getSourceSet_77(ptr noundef %0, i8 noundef signext %1, ptr noundef %2, ptr noundef %3) #1 {
  %5 = alloca ptr, align 8
  %6 = alloca ptr, align 8
  %7 = alloca i8, align 1
  %8 = alloca ptr, align 8
  %9 = alloca ptr, align 8
  store ptr %0, ptr %6, align 8, !tbaa !8
  store i8 %1, ptr %7, align 1, !tbaa !30
  store ptr %2, ptr %8, align 8, !tbaa !71
  store ptr %3, ptr %9, align 8, !tbaa !39
  %10 = load ptr, ptr %9, align 8, !tbaa !39
  %11 = icmp eq ptr %10, null
  br i1 %11, label %17, label %12

12:                                               ; preds = %4
  %13 = load ptr, ptr %9, align 8, !tbaa !39
  %14 = load i32, ptr %13, align 4, !tbaa !40
  %15 = call noundef signext i8 @_ZL9U_FAILURE10UErrorCode(i32 noundef %14)
  %16 = icmp ne i8 %15, 0
  br i1 %16, label %17, label %19

17:                                               ; preds = %12, %4
  %18 = load ptr, ptr %8, align 8, !tbaa !71
  store ptr %18, ptr %5, align 8
  br label %39

19:                                               ; preds = %12
  %20 = load ptr, ptr %8, align 8, !tbaa !71
  %21 = icmp eq ptr %20, null
  br i1 %21, label %22, label %24

22:                                               ; preds = %19
  %23 = call ptr @uset_openEmpty_77()
  store ptr %23, ptr %8, align 8, !tbaa !71
  br label %24

24:                                               ; preds = %22, %19
  %25 = load i8, ptr %7, align 1, !tbaa !30
  %26 = icmp ne i8 %25, 0
  br i1 %26, label %27, label %33

27:                                               ; preds = %24
  %28 = load ptr, ptr %6, align 8, !tbaa !8
  %29 = load ptr, ptr %8, align 8, !tbaa !71
  %30 = load ptr, ptr %28, align 8, !tbaa !12
  %31 = getelementptr inbounds ptr, ptr %30, i64 15
  %32 = load ptr, ptr %31, align 8
  call void %32(ptr noundef nonnull align 8 dereferenceable(84) %28, ptr noundef nonnull align 8 dereferenceable(200) %29)
  br label %37

33:                                               ; preds = %24
  %34 = load ptr, ptr %6, align 8, !tbaa !8
  %35 = load ptr, ptr %8, align 8, !tbaa !71
  %36 = call noundef nonnull align 8 dereferenceable(200) ptr @_ZNK6icu_7714Transliterator12getSourceSetERNS_10UnicodeSetE(ptr noundef nonnull align 8 dereferenceable(84) %34, ptr noundef nonnull align 8 dereferenceable(200) %35)
  br label %37

37:                                               ; preds = %33, %27
  %38 = load ptr, ptr %8, align 8, !tbaa !71
  store ptr %38, ptr %5, align 8
  br label %39

39:                                               ; preds = %37, %17
  %40 = load ptr, ptr %5, align 8
  ret ptr %40
}