; Function Attrs: mustprogress uwtable
define ptr @utrans_getSourceSet_77(ptr noundef %0, i8 noundef signext %1, ptr noundef %2, ptr noundef readonly %3) local_unnamed_addr #4 {
  %5 = icmp eq ptr %3, null
  br i1 %5, label %20, label %6

6:                                                ; preds = %4
  %7 = load i32, ptr %3, align 4, !tbaa !23
  %8 = icmp slt i32 %7, 1
  br i1 %8, label %9, label %20

9:                                                ; preds = %6
  %10 = icmp eq ptr %2, null
  br i1 %10, label %11, label %13

11:                                               ; preds = %9
  %12 = tail call ptr @uset_openEmpty_77()
  br label %13

13:                                               ; preds = %11, %9
  %.010 = phi ptr [ %12, %11 ], [ %2, %9 ]
  %.not13 = icmp eq i8 %1, 0
  br i1 %.not13, label %18, label %14

14:                                               ; preds = %13
  %15 = load ptr, ptr %0, align 8, !tbaa !3
  %16 = getelementptr inbounds nuw i8, ptr %15, i64 120
  %17 = load ptr, ptr %16, align 8
  tail call void %17(ptr noundef nonnull align 8 dereferenceable(84) %0, ptr noundef nonnull align 8 dereferenceable(200) %.010)
  br label %20

18:                                               ; preds = %13
  %19 = tail call noundef nonnull align 8 dereferenceable(200) ptr @_ZNK6icu_7714Transliterator12getSourceSetERNS_10UnicodeSetE(ptr noundef nonnull align 8 dereferenceable(84) %0, ptr noundef nonnull align 8 dereferenceable(200) %.010)
  br label %20

20:                                               ; preds = %14, %18, %4, %6
  %.0 = phi ptr [ %2, %6 ], [ %2, %4 ], [ %.010, %18 ], [ %.010, %14 ]
  ret ptr %.0
}